target datalayout = "e-m:e-p270:32:32-p271:32:32-p272:64:64-i64:64-i128:128-f80:128-n8:16:32:64-S128"
target triple = "x86_64-pc-linux-gnu"

%struct.inspect_extent_util_stats_verbose_s = type { ptr, i64, i64, i64, i64, i64 }

; Function Attrs: alwaysinline nounwind uwtable
define internal ptr @tsd_tsdn(ptr noundef %0) #2 {
  %2 = alloca ptr, align 8
  store ptr %0, ptr %2, align 8, !tbaa !4
  %3 = load ptr, ptr %2, align 8, !tbaa !4
  ret ptr %3
}

; Function Attrs: nounwind uwtable
define internal i32 @experimental_utilization_query_ctl(ptr noundef %0, ptr noundef %1, i64 noundef %2, ptr noundef %3, ptr noundef %4, ptr noundef %5, i64 noundef %6) #0 {
  %8 = alloca ptr, align 8
  %9 = alloca ptr, align 8
  %10 = alloca i64, align 8
  %11 = alloca ptr, align 8
  %12 = alloca ptr, align 8
  %13 = alloca ptr, align 8
  %14 = alloca i64, align 8
  %15 = alloca i32, align 4
  %16 = alloca ptr, align 8
  %17 = alloca ptr, align 8
  store ptr %0, ptr %8, align 8, !tbaa !4
  store ptr %1, ptr %9, align 8, !tbaa !12
  store i64 %2, ptr %10, align 8, !tbaa !14
  store ptr %3, ptr %11, align 8, !tbaa !11
  store ptr %4, ptr %12, align 8, !tbaa !12
  store ptr %5, ptr %13, align 8, !tbaa !11
  store i64 %6, ptr %14, align 8, !tbaa !14
  call void @llvm.lifetime.start.p0(i64 4, ptr %15) #13
  br label %18

18:                                               ; preds = %7
  br label %19

19:                                               ; preds = %18
  br label %20

20:                                               ; preds = %19
  %21 = load ptr, ptr %11, align 8, !tbaa !11
  %22 = icmp eq ptr %21, null
  br i1 %22, label %33, label %23

23:                                               ; preds = %20
  %24 = load ptr, ptr %12, align 8, !tbaa !12
  %25 = icmp eq ptr %24, null
  br i1 %25, label %33, label %26

26:                                               ; preds = %23
  %27 = load ptr, ptr %12, align 8, !tbaa !12
  %28 = load i64, ptr %27, align 8, !tbaa !14
  %29 = icmp ne i64 %28, 48
  br i1 %29, label %33, label %30

30:                                               ; preds = %26
  %31 = load ptr, ptr %13, align 8, !tbaa !11
  %32 = icmp eq ptr %31, null
  br i1 %32, label %33, label %34

33:                                               ; preds = %30, %26, %23, %20
  store i32 22, ptr %15, align 4, !tbaa !20
  br label %64

34:                                               ; preds = %30
  store ptr null, ptr %16, align 8, !tbaa !11
  br label %35

35:                                               ; preds = %34
  %36 = load ptr, ptr %13, align 8, !tbaa !11
  %37 = icmp ne ptr %36, null
  br i1 %37, label %38, label %45

38:                                               ; preds = %35
  %39 = load i64, ptr %14, align 8, !tbaa !14
  %40 = icmp ne i64 %39, 8
  br i1 %40, label %41, label %42

41:                                               ; preds = %38
  store i32 22, ptr %15, align 4, !tbaa !20
  br label %64

42:                                               ; preds = %38
  %43 = load ptr, ptr %13, align 8, !tbaa !11
  %44 = load ptr, ptr %43, align 8, !tbaa !11
  store ptr %44, ptr %16, align 8, !tbaa !11
  br label %45

45:                                               ; preds = %42, %35
  br label %46

46:                                               ; preds = %45
  br label %47

47:                                               ; preds = %46
  %48 = load ptr, ptr %11, align 8, !tbaa !11
  store ptr %48, ptr %17, align 8, !tbaa !350
  %49 = load ptr, ptr %8, align 8, !tbaa !4
  %50 = call ptr @tsd_tsdn(ptr noundef %49)
  %51 = load ptr, ptr %16, align 8, !tbaa !11
  %52 = load ptr, ptr %17, align 8, !tbaa !350
  %53 = getelementptr inbounds nuw %struct.inspect_extent_util_stats_verbose_s, ptr %52, i32 0, i32 1
  %54 = load ptr, ptr %17, align 8, !tbaa !350
  %55 = getelementptr inbounds nuw %struct.inspect_extent_util_stats_verbose_s, ptr %54, i32 0, i32 2
  %56 = load ptr, ptr %17, align 8, !tbaa !350
  %57 = getelementptr inbounds nuw %struct.inspect_extent_util_stats_verbose_s, ptr %56, i32 0, i32 3
  %58 = load ptr, ptr %17, align 8, !tbaa !350
  %59 = getelementptr inbounds nuw %struct.inspect_extent_util_stats_verbose_s, ptr %58, i32 0, i32 4
  %60 = load ptr, ptr %17, align 8, !tbaa !350
  %61 = getelementptr inbounds nuw %struct.inspect_extent_util_stats_verbose_s, ptr %60, i32 0, i32 5
  %62 = load ptr, ptr %17, align 8, !tbaa !350
  %63 = getelementptr inbounds nuw %struct.inspect_extent_util_stats_verbose_s, ptr %62, i32 0, i32 0
  call void @je_inspect_extent_util_stats_verbose_get(ptr noundef %50, ptr noundef %51, ptr noundef %53, ptr noundef %55, ptr noundef %57, ptr noundef %59, ptr noundef %61, ptr noundef %63)
  store i32 0, ptr %15, align 4, !tbaa !20
  br label %64

64:                                               ; preds = %47, %41, %33
  %65 = load i32, ptr %15, align 4, !tbaa !20
  call void @llvm.lifetime.end.p0(i64 4, ptr %15) #13
  ret i32 %65
}